target datalayout = "e-m:e-p270:32:32-p271:32:32-p272:64:64-i64:64-i128:128-f80:128-n8:16:32:64-S128"
target triple = "x86_64-pc-linux-gnu"

%class.MemRegion = type { ptr, i64 }

; Function Attrs: mustprogress nounwind uwtable
define linkonce_odr hidden noundef i64 @_Z13pointer_deltaPVKvS0_m(ptr noundef %0, ptr noundef %1, i64 noundef %2) #1 comdat {
  %4 = alloca ptr, align 8
  %5 = alloca ptr, align 8
  %6 = alloca i64, align 8
  store ptr %0, ptr %4, align 8
  store ptr %1, ptr %5, align 8
  store i64 %2, ptr %6, align 8
  %7 = load ptr, ptr %4, align 8
  %8 = ptrtoint ptr %7 to i64
  %9 = load ptr, ptr %5, align 8
  %10 = ptrtoint ptr %9 to i64
  %11 = sub i64 %8, %10
  %12 = load i64, ptr %6, align 8
  %13 = udiv i64 %11, %12
  ret i64 %13
}

; Function Attrs: mustprogress nounwind uwtable
define linkonce_odr hidden noundef i64 @_Z13pointer_deltaPKP12HeapWordImplS2_(ptr noundef %0, ptr noundef %1) #1 comdat {
  %3 = alloca ptr, align 8
  %4 = alloca ptr, align 8
  store ptr %0, ptr %3, align 8
  store ptr %1, ptr %4, align 8
  %5 = load ptr, ptr %3, align 8
  %6 = load ptr, ptr %4, align 8
  %7 = call noundef i64 @_Z13pointer_deltaPVKvS0_m(ptr noundef %5, ptr noundef %6, i64 noundef 8)
  ret i64 %7
}

; Function Attrs: mustprogress nounwind uwtable
define linkonce_odr hidden void @_ZN9MemRegion7set_endEPP12HeapWordImpl(ptr noundef nonnull align 8 dereferenceable(16) %0, ptr noundef %1) #1 comdat align 2 {
  %3 = alloca ptr, align 8
  %4 = alloca ptr, align 8
  store ptr %0, ptr %3, align 8
  store ptr %1, ptr %4, align 8
  %5 = load ptr, ptr %3, align 8
  %6 = load ptr, ptr %4, align 8
  %7 = getelementptr inbounds %class.MemRegion, ptr %5, i32 0, i32 0
  %8 = load ptr, ptr %7, align 8
  %9 = call noundef i64 @_Z13pointer_deltaPKP12HeapWordImplS2_(ptr noundef %6, ptr noundef %8)
  %10 = getelementptr inbounds %class.MemRegion, ptr %5, i32 0, i32 1
  store i64 %9, ptr %10, align 8
  ret void
}

; Function Attrs: mustprogress nounwind uwtable
define linkonce_odr hidden void @_ZN9MemRegion9set_startEPP12HeapWordImpl(ptr noundef nonnull align 8 dereferenceable(16) %0, ptr noundef %1) #1 comdat align 2 {
  %3 = alloca ptr, align 8
  %4 = alloca ptr, align 8
  store ptr %0, ptr %3, align 8
  store ptr %1, ptr %4, align 8
  %5 = load ptr, ptr %3, align 8
  %6 = load ptr, ptr %4, align 8
  %7 = getelementptr inbounds %class.MemRegion, ptr %5, i32 0, i32 0
  store ptr %6, ptr %7, align 8
  ret void
}

; Function Attrs: mustprogress nounwind uwtable
define linkonce_odr hidden noundef ptr @_Z4MIN2IPP12HeapWordImplET_S3_S3_(ptr noundef %0, ptr noundef %1) #1 comdat {
  %3 = alloca ptr, align 8
  %4 = alloca ptr, align 8
  store ptr %0, ptr %3, align 8
  store ptr %1, ptr %4, align 8
  %5 = load ptr, ptr %3, align 8
  %6 = load ptr, ptr %4, align 8
  %7 = icmp ult ptr %5, %6
  br i1 %7, label %8, label %10

8:                                                ; preds = %2
  %9 = load ptr, ptr %3, align 8
  br label %12

10:                                               ; preds = %2
  %11 = load ptr, ptr %4, align 8
  br label %12

12:                                               ; preds = %10, %8
  %13 = phi ptr [ %9, %8 ], [ %11, %10 ]
  ret ptr %13
}

; Function Attrs: mustprogress nounwind uwtable
define linkonce_odr hidden noundef ptr @_ZNK9MemRegion3endEv(ptr noundef nonnull align 8 dereferenceable(16) %0) #1 comdat align 2 {
  %2 = alloca ptr, align 8
  store ptr %0, ptr %2, align 8
  %3 = load ptr, ptr %2, align 8
  %4 = getelementptr inbounds %class.MemRegion, ptr %3, i32 0, i32 0
  %5 = load ptr, ptr %4, align 8
  %6 = getelementptr inbounds %class.MemRegion, ptr %3, i32 0, i32 1
  %7 = load i64, ptr %6, align 8
  %8 = getelementptr inbounds ptr, ptr %5, i64 %7
  ret ptr %8
}

; Function Attrs: mustprogress nounwind uwtable
define linkonce_odr hidden noundef ptr @_Z4MAX2IPP12HeapWordImplET_S3_S3_(ptr noundef %0, ptr noundef %1) #1 comdat {
  %3 = alloca ptr, align 8
  %4 = alloca ptr, align 8
  store ptr %0, ptr %3, align 8
  store ptr %1, ptr %4, align 8
  %5 = load ptr, ptr %3, align 8
  %6 = load ptr, ptr %4, align 8
  %7 = icmp ugt ptr %5, %6
  br i1 %7, label %8, label %10

8:                                                ; preds = %2
  %9 = load ptr, ptr %3, align 8
  br label %12

10:                                               ; preds = %2
  %11 = load ptr, ptr %4, align 8
  br label %12

12:                                               ; preds = %10, %8
  %13 = phi ptr [ %9, %8 ], [ %11, %10 ]
  ret ptr %13
}

; Function Attrs: mustprogress nounwind uwtable
define linkonce_odr hidden noundef ptr @_ZNK9MemRegion5startEv(ptr noundef nonnull align 8 dereferenceable(16) %0) #1 comdat align 2 {
  %2 = alloca ptr, align 8
  store ptr %0, ptr %2, align 8
  %3 = load ptr, ptr %2, align 8
  %4 = getelementptr inbounds %class.MemRegion, ptr %3, i32 0, i32 0
  %5 = load ptr, ptr %4, align 8
  ret ptr %5
}

; Function Attrs: mustprogress nounwind uwtable
define linkonce_odr hidden void @_ZN9MemRegionC2Ev(ptr noundef nonnull align 8 dereferenceable(16) %0) unnamed_addr #1 comdat align 2 {
  %2 = alloca ptr, align 8
  store ptr %0, ptr %2, align 8
  %3 = load ptr, ptr %2, align 8
  %4 = getelementptr inbounds %class.MemRegion, ptr %3, i32 0, i32 0
  store ptr null, ptr %4, align 8
  %5 = getelementptr inbounds %class.MemRegion, ptr %3, i32 0, i32 1
  store i64 0, ptr %5, align 8
  ret void
}

; Function Attrs: mustprogress nounwind uwtable
define hidden { ptr, i64 } @_ZNK9MemRegion12intersectionES_(ptr noundef nonnull align 8 dereferenceable(16) %0, ptr %1, i64 %2) #1 align 2 {
  %4 = alloca %class.MemRegion, align 8
  %5 = alloca %class.MemRegion, align 8
  %6 = alloca ptr, align 8
  %7 = alloca ptr, align 8
  %8 = alloca ptr, align 8
  %9 = getelementptr inbounds { ptr, i64 }, ptr %5, i32 0, i32 0
  store ptr %1, ptr %9, align 8
  %10 = getelementptr inbounds { ptr, i64 }, ptr %5, i32 0, i32 1
  store i64 %2, ptr %10, align 8
  store ptr %0, ptr %6, align 8
  %11 = load ptr, ptr %6, align 8
  call void @_ZN9MemRegionC2Ev(ptr noundef nonnull align 8 dereferenceable(16) %4)
  %12 = call noundef ptr @_ZNK9MemRegion5startEv(ptr noundef nonnull align 8 dereferenceable(16) %11)
  %13 = call noundef ptr @_ZNK9MemRegion5startEv(ptr noundef nonnull align 8 dereferenceable(16) %5)
  %14 = call noundef ptr @_Z4MAX2IPP12HeapWordImplET_S3_S3_(ptr noundef %12, ptr noundef %13)
  store ptr %14, ptr %7, align 8
  %15 = call noundef ptr @_ZNK9MemRegion3endEv(ptr noundef nonnull align 8 dereferenceable(16) %11)
  %16 = call noundef ptr @_ZNK9MemRegion3endEv(ptr noundef nonnull align 8 dereferenceable(16) %5)
  %17 = call noundef ptr @_Z4MIN2IPP12HeapWordImplET_S3_S3_(ptr noundef %15, ptr noundef %16)
  store ptr %17, ptr %8, align 8
  %18 = load ptr, ptr %7, align 8
  %19 = load ptr, ptr %8, align 8
  %20 = icmp ult ptr %18, %19
  br i1 %20, label %21, label %24

21:                                               ; preds = %3
  %22 = load ptr, ptr %7, align 8
  call void @_ZN9MemRegion9set_startEPP12HeapWordImpl(ptr noundef nonnull align 8 dereferenceable(16) %4, ptr noundef %22)
  %23 = load ptr, ptr %8, align 8
  call void @_ZN9MemRegion7set_endEPP12HeapWordImpl(ptr noundef nonnull align 8 dereferenceable(16) %4, ptr noundef %23)
  br label %24

24:                                               ; preds = %21, %3
  %25 = load { ptr, i64 }, ptr %4, align 8
  ret { ptr, i64 } %25
}