; Function Attrs: mustprogress nofree norecurse nosync nounwind willreturn memory(argmem: read) uwtable
define hidden { ptr, i64 } @_ZNK9MemRegion12intersectionES_(ptr nocapture noundef nonnull readonly align 8 dereferenceable(16) %0, ptr %1, i64 %2) local_unnamed_addr #0 align 2 {
  %4 = load ptr, ptr %0, align 8
  %5 = icmp ugt ptr %4, %1
  %6 = select i1 %5, ptr %4, ptr %1
  %7 = getelementptr inbounds i8, ptr %0, i64 8
  %8 = load i64, ptr %7, align 8
  %9 = getelementptr inbounds ptr, ptr %4, i64 %8
  %10 = getelementptr inbounds ptr, ptr %1, i64 %2
  %11 = icmp ult ptr %9, %10
  %12 = select i1 %11, ptr %9, ptr %10
  %13 = icmp ult ptr %6, %12
  %14 = ptrtoint ptr %12 to i64
  %15 = ptrtoint ptr %6 to i64
  %16 = sub i64 %14, %15
  %17 = lshr i64 %16, 3
  %.sroa.4.0 = select i1 %13, i64 %17, i64 0
  %.sroa.07.0 = select i1 %13, ptr %6, ptr null
  %.fca.0.insert = insertvalue { ptr, i64 } poison, ptr %.sroa.07.0, 0
  %.fca.1.insert = insertvalue { ptr, i64 } %.fca.0.insert, i64 %.sroa.4.0, 1
  ret { ptr, i64 } %.fca.1.insert
}